target datalayout = "e-m:e-p270:32:32-p271:32:32-p272:64:64-i64:64-i128:128-f80:128-n8:16:32:64-S128"
target triple = "x86_64-pc-linux-gnu"

%struct.ipfix_message_header_s = type { i16, i16, i32, i32, i32 }
%struct.wtap = type { ptr, ptr, i32, i32, i32, ptr, ptr, ptr, i32, ptr, ptr, ptr, ptr, ptr, ptr, ptr, ptr, ptr, ptr, i32, i32, ptr, ptr, ptr, ptr }
%struct.wtap_rec = type { i32, i32, i32, %struct.nstime_t, i32, %struct.nstime_t, i32, %union.anon, ptr, i32, %struct.Buffer }
%struct.nstime_t = type { i64, i32 }
%union.anon = type { %struct.wtap_packet_header }
%struct.wtap_packet_header = type { i32, i32, i32, i32, %union.wtap_pseudo_header }
%union.wtap_pseudo_header = type { %struct.erf_mc_phdr }
%struct.erf_mc_phdr = type { %struct.erf_phdr, [16 x %struct.erf_ehdr], %union.anon.1 }
%struct.erf_phdr = type { i64, i8, i8, i16, i16, i16 }
%struct.erf_ehdr = type { i64 }
%union.anon.1 = type { i32 }
%struct.Buffer = type { ptr, i64, i64, i64 }

; Function Attrs: nounwind uwtable
define internal i32 @ipfix_read_message(ptr noundef %0, ptr noundef %1, ptr noundef %2, ptr noundef %3, ptr noundef %4) #0 {
  %6 = alloca i32, align 4
  %7 = alloca ptr, align 8
  %8 = alloca ptr, align 8
  %9 = alloca ptr, align 8
  %10 = alloca ptr, align 8
  %11 = alloca ptr, align 8
  %12 = alloca %struct.ipfix_message_header_s, align 4
  store ptr %0, ptr %7, align 8
  store ptr %1, ptr %8, align 8
  store ptr %2, ptr %9, align 8
  store ptr %3, ptr %10, align 8
  store ptr %4, ptr %11, align 8
  %13 = load ptr, ptr %7, align 8
  %14 = load ptr, ptr %10, align 8
  %15 = load ptr, ptr %11, align 8
  %16 = call i32 @ipfix_read_message_header(ptr noundef %12, ptr noundef %13, ptr noundef %14, ptr noundef %15)
  %17 = icmp ne i32 %16, 0
  br i1 %17, label %19, label %18

18:                                               ; preds = %5
  store i32 0, ptr %6, align 4
  br label %56

19:                                               ; preds = %5
  %20 = load ptr, ptr %8, align 8
  %21 = getelementptr inbounds %struct.wtap_rec, ptr %20, i32 0, i32 0
  store i32 0, ptr %21, align 8
  %22 = call ptr @wtap_block_create(i32 noundef 5)
  %23 = load ptr, ptr %8, align 8
  %24 = getelementptr inbounds %struct.wtap_rec, ptr %23, i32 0, i32 8
  store ptr %22, ptr %24, align 8
  %25 = load ptr, ptr %8, align 8
  %26 = getelementptr inbounds %struct.wtap_rec, ptr %25, i32 0, i32 1
  store i32 1, ptr %26, align 4
  %27 = getelementptr inbounds %struct.ipfix_message_header_s, ptr %12, i32 0, i32 1
  %28 = load i16, ptr %27, align 2
  %29 = zext i16 %28 to i32
  %30 = load ptr, ptr %8, align 8
  %31 = getelementptr inbounds %struct.wtap_rec, ptr %30, i32 0, i32 7
  %32 = getelementptr inbounds %struct.wtap_packet_header, ptr %31, i32 0, i32 1
  store i32 %29, ptr %32, align 4
  %33 = getelementptr inbounds %struct.ipfix_message_header_s, ptr %12, i32 0, i32 1
  %34 = load i16, ptr %33, align 2
  %35 = zext i16 %34 to i32
  %36 = load ptr, ptr %8, align 8
  %37 = getelementptr inbounds %struct.wtap_rec, ptr %36, i32 0, i32 7
  %38 = getelementptr inbounds %struct.wtap_packet_header, ptr %37, i32 0, i32 0
  store i32 %35, ptr %38, align 8
  %39 = getelementptr inbounds %struct.ipfix_message_header_s, ptr %12, i32 0, i32 2
  %40 = load i32, ptr %39, align 4
  %41 = zext i32 %40 to i64
  %42 = load ptr, ptr %8, align 8
  %43 = getelementptr inbounds %struct.wtap_rec, ptr %42, i32 0, i32 3
  %44 = getelementptr inbounds %struct.nstime_t, ptr %43, i32 0, i32 0
  store i64 %41, ptr %44, align 8
  %45 = load ptr, ptr %8, align 8
  %46 = getelementptr inbounds %struct.wtap_rec, ptr %45, i32 0, i32 3
  %47 = getelementptr inbounds %struct.nstime_t, ptr %46, i32 0, i32 1
  store i32 0, ptr %47, align 8
  %48 = load ptr, ptr %7, align 8
  %49 = load ptr, ptr %9, align 8
  %50 = getelementptr inbounds %struct.ipfix_message_header_s, ptr %12, i32 0, i32 1
  %51 = load i16, ptr %50, align 2
  %52 = zext i16 %51 to i32
  %53 = load ptr, ptr %10, align 8
  %54 = load ptr, ptr %11, align 8
  %55 = call i32 @wtap_read_packet_bytes(ptr noundef %48, ptr noundef %49, i32 noundef %52, ptr noundef %53, ptr noundef %54)
  store i32 %55, ptr %6, align 4
  br label %56

56:                                               ; preds = %19, %18
  %57 = load i32, ptr %6, align 4
  ret i32 %57
}

; Function Attrs: nounwind uwtable
define internal i32 @ipfix_seek_read(ptr noundef %0, i64 noundef %1, ptr noundef %2, ptr noundef %3, ptr noundef %4, ptr noundef %5) #0 {
  %7 = alloca i32, align 4
  %8 = alloca ptr, align 8
  %9 = alloca i64, align 8
  %10 = alloca ptr, align 8
  %11 = alloca ptr, align 8
  %12 = alloca ptr, align 8
  %13 = alloca ptr, align 8
  store ptr %0, ptr %8, align 8
  store i64 %1, ptr %9, align 8
  store ptr %2, ptr %10, align 8
  store ptr %3, ptr %11, align 8
  store ptr %4, ptr %12, align 8
  store ptr %5, ptr %13, align 8
  %14 = load ptr, ptr %8, align 8
  %15 = getelementptr inbounds %struct.wtap, ptr %14, i32 0, i32 1
  %16 = load ptr, ptr %15, align 8
  %17 = load i64, ptr %9, align 8
  %18 = load ptr, ptr %12, align 8
  %19 = call i64 @file_seek(ptr noundef %16, i64 noundef %17, i32 noundef 0, ptr noundef %18)
  %20 = icmp eq i64 %19, -1
  br i1 %20, label %21, label %24

21:                                               ; preds = %6
  br label %22

22:                                               ; preds = %21
  br label %23

23:                                               ; preds = %22
  store i32 0, ptr %7, align 4
  br label %46

24:                                               ; preds = %6
  br label %25

25:                                               ; preds = %24
  br label %26

26:                                               ; preds = %25
  %27 = load ptr, ptr %8, align 8
  %28 = getelementptr inbounds %struct.wtap, ptr %27, i32 0, i32 1
  %29 = load ptr, ptr %28, align 8
  %30 = load ptr, ptr %10, align 8
  %31 = load ptr, ptr %11, align 8
  %32 = load ptr, ptr %12, align 8
  %33 = load ptr, ptr %13, align 8
  %34 = call i32 @ipfix_read_message(ptr noundef %29, ptr noundef %30, ptr noundef %31, ptr noundef %32, ptr noundef %33)
  %35 = icmp ne i32 %34, 0
  br i1 %35, label %45, label %36

36:                                               ; preds = %26
  br label %37

37:                                               ; preds = %36
  br label %38

38:                                               ; preds = %37
  %39 = load ptr, ptr %12, align 8
  %40 = load i32, ptr %39, align 4
  %41 = icmp eq i32 %40, 0
  br i1 %41, label %42, label %44

42:                                               ; preds = %38
  %43 = load ptr, ptr %12, align 8
  store i32 -12, ptr %43, align 4
  br label %44

44:                                               ; preds = %42, %38
  store i32 0, ptr %7, align 4
  br label %46

45:                                               ; preds = %26
  store i32 1, ptr %7, align 4
  br label %46

46:                                               ; preds = %45, %44, %23
  %47 = load i32, ptr %7, align 4
  ret i32 %47
}