; Function Attrs: nounwind uwtable
define internal range(i32 0, 2) i32 @ipfix_seek_read(ptr noundef readonly captures(none) %0, i64 noundef %1, ptr noundef writeonly captures(none) %2, ptr noundef %3, ptr noundef %4, ptr noundef %5) #0 {
  %7 = alloca %struct.ipfix_message_header_s, align 4
  %8 = getelementptr inbounds nuw i8, ptr %0, i64 8
  %9 = load ptr, ptr %8, align 8
  %10 = tail call i64 @file_seek(ptr noundef %9, i64 noundef %1, i32 noundef 0, ptr noundef %4) #5
  %11 = icmp eq i64 %10, -1
  br i1 %11, label %33, label %12

12:                                               ; preds = %6
  %13 = load ptr, ptr %8, align 8
  call void @llvm.lifetime.start.p0(i64 16, ptr nonnull %7)
  %14 = call fastcc i32 @ipfix_read_message_header(ptr noundef %7, ptr noundef %13, ptr noundef %4, ptr noundef %5)
  %.not.i = icmp eq i32 %14, 0
  br i1 %.not.i, label %ipfix_read_message.exit.thread, label %ipfix_read_message.exit

ipfix_read_message.exit.thread:                   ; preds = %12
  call void @llvm.lifetime.end.p0(i64 16, ptr nonnull %7)
  br label %29

ipfix_read_message.exit:                          ; preds = %12
  store i32 0, ptr %2, align 8
  %15 = call ptr @wtap_block_create(i32 noundef 5) #5
  %16 = getelementptr inbounds nuw i8, ptr %2, i64 232
  store ptr %15, ptr %16, align 8
  %17 = getelementptr inbounds nuw i8, ptr %2, i64 4
  store i32 1, ptr %17, align 4
  %18 = getelementptr inbounds nuw i8, ptr %7, i64 2
  %19 = load i16, ptr %18, align 2
  %20 = zext i16 %19 to i32
  %21 = getelementptr inbounds nuw i8, ptr %2, i64 64
  %22 = getelementptr inbounds nuw i8, ptr %2, i64 68
  store i32 %20, ptr %22, align 4
  store i32 %20, ptr %21, align 8
  %23 = getelementptr inbounds nuw i8, ptr %7, i64 4
  %24 = load i32, ptr %23, align 4
  %25 = zext i32 %24 to i64
  %26 = getelementptr inbounds nuw i8, ptr %2, i64 16
  store i64 %25, ptr %26, align 8
  %27 = getelementptr inbounds nuw i8, ptr %2, i64 24
  store i32 0, ptr %27, align 8
  %28 = call i32 @wtap_read_packet_bytes(ptr noundef %13, ptr noundef %3, i32 noundef %20, ptr noundef %4, ptr noundef %5) #5
  call void @llvm.lifetime.end.p0(i64 16, ptr nonnull %7)
  %.not = icmp eq i32 %28, 0
  br i1 %.not, label %29, label %33

29:                                               ; preds = %ipfix_read_message.exit.thread, %ipfix_read_message.exit
  %30 = load i32, ptr %4, align 4
  %31 = icmp eq i32 %30, 0
  br i1 %31, label %32, label %33

32:                                               ; preds = %29
  store i32 -12, ptr %4, align 4
  br label %33

33:                                               ; preds = %ipfix_read_message.exit, %29, %32, %6
  %.0 = phi i32 [ 0, %6 ], [ 0, %32 ], [ 0, %29 ], [ 1, %ipfix_read_message.exit ]
  ret i32 %.0
}